; Function Attrs: mustprogress uwtable
define void @_ZN5folly6fibers9Semaphore6signalEv(ptr noundef nonnull align 8 dereferenceable(40) %0) local_unnamed_addr #0 align 2 {
  %2 = getelementptr inbounds nuw i8, ptr %0, i64 8
  %3 = load atomic i64, ptr %2 acquire, align 8
  br label %4

4:                                                ; preds = %_ZNSt13__atomic_baseIlE21compare_exchange_weakERllSt12memory_orderS2_.exit, %1
  %.0 = phi i64 [ %3, %1 ], [ %13, %_ZNSt13__atomic_baseIlE21compare_exchange_weakERllSt12memory_orderS2_.exit ]
  %5 = icmp eq i64 %.0, 0
  br i1 %5, label %.lr.ph, label %._crit_edge

.lr.ph:                                           ; preds = %4, %7
  %6 = tail call noundef zeroext i1 @_ZN5folly6fibers9Semaphore10signalSlowEv(ptr noundef nonnull align 8 dereferenceable(40) %0)
  br i1 %6, label %_ZNSt13__atomic_baseIlE21compare_exchange_weakERllSt12memory_orderS2_.exit.thread, label %7

7:                                                ; preds = %.lr.ph
  %8 = load atomic i64, ptr %2 acquire, align 8
  %9 = icmp eq i64 %8, 0
  br i1 %9, label %.lr.ph, label %._crit_edge, !llvm.loop !41

._crit_edge:                                      ; preds = %7, %4
  %.1.lcssa = phi i64 [ %.0, %4 ], [ %8, %7 ]
  %10 = add nsw i64 %.1.lcssa, 1
  %11 = cmpxchg weak ptr %2, i64 %.1.lcssa, i64 %10 release acquire, align 8
  %12 = extractvalue { i64, i1 } %11, 1
  br i1 %12, label %_ZNSt13__atomic_baseIlE21compare_exchange_weakERllSt12memory_orderS2_.exit.thread, label %_ZNSt13__atomic_baseIlE21compare_exchange_weakERllSt12memory_orderS2_.exit

_ZNSt13__atomic_baseIlE21compare_exchange_weakERllSt12memory_orderS2_.exit: ; preds = %._crit_edge
  %13 = extractvalue { i64, i1 } %11, 0
  br label %4

_ZNSt13__atomic_baseIlE21compare_exchange_weakERllSt12memory_orderS2_.exit.thread: ; preds = %._crit_edge, %.lr.ph
  ret void
}